target datalayout = "e-m:e-p270:32:32-p271:32:32-p272:64:64-i64:64-i128:128-f80:128-n8:16:32:64-S128"
target triple = "x86_64-pc-linux-gnu"

; Function Attrs: nounwind uwtable
define i32 @av_chroma_location_enum_to_pos(ptr noundef %0, ptr noundef %1, i32 noundef %2) #0 {
  %4 = alloca i32, align 4
  %5 = alloca ptr, align 8
  %6 = alloca ptr, align 8
  %7 = alloca i32, align 4
  store ptr %0, ptr %5, align 8, !tbaa !11
  store ptr %1, ptr %6, align 8, !tbaa !11
  store i32 %2, ptr %7, align 4, !tbaa !15
  %8 = load i32, ptr %7, align 4, !tbaa !15
  %9 = icmp ule i32 %8, 0
  br i1 %9, label %13, label %10

10:                                               ; preds = %3
  %11 = load i32, ptr %7, align 4, !tbaa !15
  %12 = icmp uge i32 %11, 7
  br i1 %12, label %13, label %14

13:                                               ; preds = %10, %3
  store i32 -22, ptr %4, align 4
  br label %29

14:                                               ; preds = %10
  %15 = load i32, ptr %7, align 4, !tbaa !15
  %16 = add i32 %15, -1
  store i32 %16, ptr %7, align 4, !tbaa !15
  %17 = load i32, ptr %7, align 4, !tbaa !15
  %18 = and i32 %17, 1
  %19 = mul i32 %18, 128
  %20 = load ptr, ptr %5, align 8, !tbaa !11
  store i32 %19, ptr %20, align 4, !tbaa !15
  %21 = load i32, ptr %7, align 4, !tbaa !15
  %22 = lshr i32 %21, 1
  %23 = load i32, ptr %7, align 4, !tbaa !15
  %24 = icmp ult i32 %23, 4
  %25 = zext i1 %24 to i32
  %26 = xor i32 %22, %25
  %27 = mul i32 %26, 128
  %28 = load ptr, ptr %6, align 8, !tbaa !11
  store i32 %27, ptr %28, align 4, !tbaa !15
  store i32 0, ptr %4, align 4
  br label %29

29:                                               ; preds = %14, %13
  %30 = load i32, ptr %4, align 4
  ret i32 %30
}

; Function Attrs: nounwind uwtable
define i32 @av_chroma_location_pos_to_enum(i32 noundef %0, i32 noundef %1) #0 {
  %3 = alloca i32, align 4
  %4 = alloca i32, align 4
  %5 = alloca i32, align 4
  %6 = alloca i32, align 4
  %7 = alloca i32, align 4
  %8 = alloca i32, align 4
  %9 = alloca i32, align 4
  store i32 %0, ptr %4, align 4, !tbaa !15
  store i32 %1, ptr %5, align 4, !tbaa !15
  call void @llvm.lifetime.start.p0(i64 4, ptr %6) #8
  call void @llvm.lifetime.start.p0(i64 4, ptr %7) #8
  call void @llvm.lifetime.start.p0(i64 4, ptr %8) #8
  store i32 1, ptr %6, align 4, !tbaa !15
  br label %10

10:                                               ; preds = %28, %2
  %11 = load i32, ptr %6, align 4, !tbaa !15
  %12 = icmp slt i32 %11, 7
  br i1 %12, label %13, label %31

13:                                               ; preds = %10
  %14 = load i32, ptr %6, align 4, !tbaa !15
  %15 = call i32 @av_chroma_location_enum_to_pos(ptr noundef %7, ptr noundef %8, i32 noundef %14)
  %16 = icmp eq i32 %15, 0
  br i1 %16, label %17, label %27

17:                                               ; preds = %13
  %18 = load i32, ptr %7, align 4, !tbaa !15
  %19 = load i32, ptr %4, align 4, !tbaa !15
  %20 = icmp eq i32 %18, %19
  br i1 %20, label %21, label %27

21:                                               ; preds = %17
  %22 = load i32, ptr %8, align 4, !tbaa !15
  %23 = load i32, ptr %5, align 4, !tbaa !15
  %24 = icmp eq i32 %22, %23
  br i1 %24, label %25, label %27

25:                                               ; preds = %21
  %26 = load i32, ptr %6, align 4, !tbaa !15
  store i32 %26, ptr %3, align 4
  store i32 1, ptr %9, align 4
  br label %32

27:                                               ; preds = %21, %17, %13
  br label %28

28:                                               ; preds = %27
  %29 = load i32, ptr %6, align 4, !tbaa !15
  %30 = add nsw i32 %29, 1
  store i32 %30, ptr %6, align 4, !tbaa !15
  br label %10, !llvm.loop !62

31:                                               ; preds = %10
  store i32 0, ptr %3, align 4
  store i32 1, ptr %9, align 4
  br label %32

32:                                               ; preds = %31, %25
  call void @llvm.lifetime.end.p0(i64 4, ptr %8) #8
  call void @llvm.lifetime.end.p0(i64 4, ptr %7) #8
  call void @llvm.lifetime.end.p0(i64 4, ptr %6) #8
  %33 = load i32, ptr %3, align 4
  ret i32 %33
}