; Function Attrs: nofree norecurse nosync nounwind memory(none) uwtable
define range(i32 0, 7) i32 @av_chroma_location_pos_to_enum(i32 noundef %0, i32 noundef %1) local_unnamed_addr #11 {
  br label %av_chroma_location_enum_to_pos.exit

av_chroma_location_enum_to_pos.exit:              ; preds = %2, %av_chroma_location_enum_to_pos.exit.thread
  %.022 = phi i32 [ 1, %2 ], [ %13, %av_chroma_location_enum_to_pos.exit.thread ]
  %3 = add nsw i32 %.022, -1
  %4 = shl nuw nsw i32 %3, 7
  %5 = and i32 %4, 128
  %6 = lshr i32 %3, 1
  %7 = icmp samesign ult i32 %.022, 5
  %8 = zext i1 %7 to i32
  %9 = xor i32 %6, %8
  %10 = shl nuw nsw i32 %9, 7
  %11 = icmp eq i32 %5, %0
  %12 = icmp eq i32 %10, %1
  %or.cond10 = select i1 %11, i1 %12, i1 false
  br i1 %or.cond10, label %14, label %av_chroma_location_enum_to_pos.exit.thread

av_chroma_location_enum_to_pos.exit.thread:       ; preds = %av_chroma_location_enum_to_pos.exit
  %13 = add nuw nsw i32 %.022, 1
  %exitcond.not = icmp eq i32 %13, 7
  br i1 %exitcond.not, label %14, label %av_chroma_location_enum_to_pos.exit, !llvm.loop !47

14:                                               ; preds = %av_chroma_location_enum_to_pos.exit.thread, %av_chroma_location_enum_to_pos.exit
  %.07 = phi i32 [ %.022, %av_chroma_location_enum_to_pos.exit ], [ 0, %av_chroma_location_enum_to_pos.exit.thread ]
  ret i32 %.07
}